target datalayout = "e-m:e-p270:32:32-p271:32:32-p272:64:64-i64:64-i128:128-f80:128-n8:16:32:64-S128"
target triple = "x86_64-unknown-linux-gnu"

%"class.QuantLib::MarketModelComposite" = type { %"class.QuantLib::MarketModelMultiProduct", %"class.std::vector", %"class.std::vector.0", %"class.std::vector.0", %"class.QuantLib::EvolutionDescription", i8, i64, %"class.std::vector.0", %"class.std::vector.15", %"class.std::vector.20" }
%"class.QuantLib::MarketModelMultiProduct" = type { ptr }
%"class.std::vector" = type { %"struct.std::_Vector_base" }
%"struct.std::_Vector_base" = type { %"struct.std::_Vector_base<QuantLib::MarketModelComposite::SubProduct, std::allocator<QuantLib::MarketModelComposite::SubProduct>>::_Vector_impl" }
%"struct.std::_Vector_base<QuantLib::MarketModelComposite::SubProduct, std::allocator<QuantLib::MarketModelComposite::SubProduct>>::_Vector_impl" = type { %"struct.std::_Vector_base<QuantLib::MarketModelComposite::SubProduct, std::allocator<QuantLib::MarketModelComposite::SubProduct>>::_Vector_impl_data" }
%"struct.std::_Vector_base<QuantLib::MarketModelComposite::SubProduct, std::allocator<QuantLib::MarketModelComposite::SubProduct>>::_Vector_impl_data" = type { ptr, ptr, ptr }
%"class.QuantLib::EvolutionDescription" = type { i64, %"class.std::vector.0", %"class.std::vector.0", %"class.std::vector.5", %"class.std::vector.0", %"class.std::vector.10" }
%"class.std::vector.5" = type { %"struct.std::_Vector_base.6" }
%"struct.std::_Vector_base.6" = type { %"struct.std::_Vector_base<std::pair<unsigned long, unsigned long>, std::allocator<std::pair<unsigned long, unsigned long>>>::_Vector_impl" }
%"struct.std::_Vector_base<std::pair<unsigned long, unsigned long>, std::allocator<std::pair<unsigned long, unsigned long>>>::_Vector_impl" = type { %"struct.std::_Vector_base<std::pair<unsigned long, unsigned long>, std::allocator<std::pair<unsigned long, unsigned long>>>::_Vector_impl_data" }
%"struct.std::_Vector_base<std::pair<unsigned long, unsigned long>, std::allocator<std::pair<unsigned long, unsigned long>>>::_Vector_impl_data" = type { ptr, ptr, ptr }
%"class.std::vector.10" = type { %"struct.std::_Vector_base.11" }
%"struct.std::_Vector_base.11" = type { %"struct.std::_Vector_base<unsigned long, std::allocator<unsigned long>>::_Vector_impl" }
%"struct.std::_Vector_base<unsigned long, std::allocator<unsigned long>>::_Vector_impl" = type { %"struct.std::_Vector_base<unsigned long, std::allocator<unsigned long>>::_Vector_impl_data" }
%"struct.std::_Vector_base<unsigned long, std::allocator<unsigned long>>::_Vector_impl_data" = type { ptr, ptr, ptr }
%"class.std::vector.0" = type { %"struct.std::_Vector_base.1" }
%"struct.std::_Vector_base.1" = type { %"struct.std::_Vector_base<double, std::allocator<double>>::_Vector_impl" }
%"struct.std::_Vector_base<double, std::allocator<double>>::_Vector_impl" = type { %"struct.std::_Vector_base<double, std::allocator<double>>::_Vector_impl_data" }
%"struct.std::_Vector_base<double, std::allocator<double>>::_Vector_impl_data" = type { ptr, ptr, ptr }
%"class.std::vector.15" = type { %"struct.std::_Vector_base.16" }
%"struct.std::_Vector_base.16" = type { %"struct.std::_Vector_base<std::vector<double>, std::allocator<std::vector<double>>>::_Vector_impl" }
%"struct.std::_Vector_base<std::vector<double>, std::allocator<std::vector<double>>>::_Vector_impl" = type { %"struct.std::_Vector_base<std::vector<double>, std::allocator<std::vector<double>>>::_Vector_impl_data" }
%"struct.std::_Vector_base<std::vector<double>, std::allocator<std::vector<double>>>::_Vector_impl_data" = type { ptr, ptr, ptr }
%"class.std::vector.20" = type { %"struct.std::_Vector_base.21" }
%"struct.std::_Vector_base.21" = type { %"struct.std::_Vector_base<std::valarray<bool>, std::allocator<std::valarray<bool>>>::_Vector_impl" }
%"struct.std::_Vector_base<std::valarray<bool>, std::allocator<std::valarray<bool>>>::_Vector_impl" = type { %"struct.std::_Vector_base<std::valarray<bool>, std::allocator<std::valarray<bool>>>::_Vector_impl_data" }
%"struct.std::_Vector_base<std::valarray<bool>, std::allocator<std::valarray<bool>>>::_Vector_impl_data" = type { ptr, ptr, ptr }

; Function Attrs: mustprogress nounwind uwtable
define linkonce_odr noundef i64 @_ZNKSt6vectorIN8QuantLib20MarketModelComposite10SubProductESaIS2_EE4sizeEv(ptr noundef nonnull align 8 dereferenceable(24) %this) #3 comdat align 2 {
entry:
  %this.addr = alloca ptr, align 8
  store ptr %this, ptr %this.addr, align 8, !tbaa !3
  %this1 = load ptr, ptr %this.addr, align 8
  %_M_impl = getelementptr inbounds nuw %"struct.std::_Vector_base", ptr %this1, i32 0, i32 0
  %_M_finish = getelementptr inbounds nuw %"struct.std::_Vector_base<QuantLib::MarketModelComposite::SubProduct, std::allocator<QuantLib::MarketModelComposite::SubProduct>>::_Vector_impl_data", ptr %_M_impl, i32 0, i32 1
  %0 = load ptr, ptr %_M_finish, align 8, !tbaa !64
  %_M_impl2 = getelementptr inbounds nuw %"struct.std::_Vector_base", ptr %this1, i32 0, i32 0
  %_M_start = getelementptr inbounds nuw %"struct.std::_Vector_base<QuantLib::MarketModelComposite::SubProduct, std::allocator<QuantLib::MarketModelComposite::SubProduct>>::_Vector_impl_data", ptr %_M_impl2, i32 0, i32 0
  %1 = load ptr, ptr %_M_start, align 8, !tbaa !86
  %sub.ptr.lhs.cast = ptrtoint ptr %0 to i64
  %sub.ptr.rhs.cast = ptrtoint ptr %1 to i64
  %sub.ptr.sub = sub i64 %sub.ptr.lhs.cast, %sub.ptr.rhs.cast
  %sub.ptr.div = sdiv exact i64 %sub.ptr.sub, 96
  ret i64 %sub.ptr.div
}

; Function Attrs: mustprogress nounwind uwtable
define noundef i64 @_ZNK8QuantLib20MarketModelComposite4sizeEv(ptr noundef nonnull align 8 dereferenceable(296) %this) #3 align 2 {
entry:
  %this.addr = alloca ptr, align 8
  store ptr %this, ptr %this.addr, align 8, !tbaa !3
  %this1 = load ptr, ptr %this.addr, align 8
  %components_ = getelementptr inbounds nuw %"class.QuantLib::MarketModelComposite", ptr %this1, i32 0, i32 1
  %call = call noundef i64 @_ZNKSt6vectorIN8QuantLib20MarketModelComposite10SubProductESaIS2_EE4sizeEv(ptr noundef nonnull align 8 dereferenceable(24) %components_) #18
  ret i64 %call
}