; Function Attrs: mustprogress nofree norecurse nosync nounwind willreturn memory(argmem: read) uwtable
define noundef range(i64 -96076792050570581, 96076792050570582) i64 @_ZNK8QuantLib20MarketModelComposite4sizeEv(ptr nocapture noundef nonnull readonly align 8 dereferenceable(296) %this) local_unnamed_addr #9 align 2 {
entry:
  %components_ = getelementptr inbounds nuw i8, ptr %this, i64 8
  %_M_finish.i = getelementptr inbounds nuw i8, ptr %this, i64 16
  %0 = load ptr, ptr %_M_finish.i, align 8, !tbaa !77
  %1 = load ptr, ptr %components_, align 8, !tbaa !104
  %sub.ptr.lhs.cast.i = ptrtoint ptr %0 to i64
  %sub.ptr.rhs.cast.i = ptrtoint ptr %1 to i64
  %sub.ptr.sub.i = sub i64 %sub.ptr.lhs.cast.i, %sub.ptr.rhs.cast.i
  %sub.ptr.div.i = sdiv exact i64 %sub.ptr.sub.i, 96
  ret i64 %sub.ptr.div.i
}